; Function Attrs: mustprogress nounwind uwtable
define dso_local void @_ZN4llvm15CodeViewContext16addToStringTableENS_9StringRefE(ptr dead_on_unwind noalias nocapture writable writeonly sret(%"struct.std::pair") align 8 %0, ptr noundef nonnull align 8 dereferenceable(289) %1, ptr %2, i64 %3) local_unnamed_addr #0 align 2 {
  %5 = alloca %"struct.std::pair", align 8
  %6 = tail call noundef ptr @_ZN4llvm15CodeViewContext22getStringTableFragmentEv(ptr noundef nonnull align 8 dereferenceable(289) %1)
  %7 = getelementptr inbounds nuw i8, ptr %6, i64 40
  %8 = getelementptr inbounds nuw i8, ptr %1, i64 8
  %9 = tail call noundef i64 @_ZNK4llvm15SmallVectorBaseImE4sizeEv(ptr noundef nonnull align 8 dereferenceable(24) %7) #16
  %10 = trunc i64 %9 to i32
  call void @llvm.lifetime.start.p0(i64 24, ptr nonnull %5)
  store ptr %2, ptr %5, align 8
  %.sroa.06.sroa.2.0..sroa_idx = getelementptr inbounds i8, ptr %5, i64 8
  store i64 %3, ptr %.sroa.06.sroa.2.0..sroa_idx, align 8
  %.sroa.27.0..sroa_idx = getelementptr inbounds i8, ptr %5, i64 16
  store i32 %10, ptr %.sroa.27.0..sroa_idx, align 8
  %11 = tail call noundef i32 @_ZN4llvm13StringMapImpl4hashENS_9StringRefE(ptr %2, i64 %3) #16
  %12 = call { ptr, i8 } @_ZN4llvm9StringMapIjNS_15MallocAllocatorEE21try_emplace_with_hashIJjEEESt4pairINS_17StringMapIteratorIjEEbENS_9StringRefEjDpOT_(ptr noundef nonnull align 8 dereferenceable(24) %8, ptr %2, i64 %3, i32 noundef %11, ptr noundef nonnull align 4 dereferenceable(4) %.sroa.27.0..sroa_idx)
  call void @llvm.lifetime.end.p0(i64 24, ptr nonnull %5)
  %.fca.0.extract = extractvalue { ptr, i8 } %12, 0
  %.fca.1.extract = extractvalue { ptr, i8 } %12, 1
  %13 = load ptr, ptr %.fca.0.extract, align 8
  %14 = getelementptr inbounds i8, ptr %13, i64 16
  %15 = load i64, ptr %13, align 8
  %16 = getelementptr inbounds nuw i8, ptr %13, i64 8
  call void @llvm.experimental.noalias.scope.decl(metadata !16)
  store ptr %14, ptr %0, align 8
  %.sroa.2.0..sroa_idx5 = getelementptr inbounds i8, ptr %0, i64 8
  store i64 %15, ptr %.sroa.2.0..sroa_idx5, align 8
  %17 = getelementptr inbounds nuw i8, ptr %0, i64 16
  %18 = load i32, ptr %16, align 4, !noalias !16
  store i32 %18, ptr %17, align 8, !alias.scope !16
  %19 = trunc i8 %.fca.1.extract to i1
  br i1 %19, label %20, label %23

20:                                               ; preds = %4
  %21 = getelementptr inbounds i8, ptr %14, i64 %15
  %22 = getelementptr inbounds i8, ptr %21, i64 1
  call void @_ZN4llvm15SmallVectorImplIcE6appendIPKcvEEvT_S5_(ptr noundef nonnull align 8 dereferenceable(24) %7, ptr noundef nonnull %14, ptr noundef nonnull %22)
  br label %23

23:                                               ; preds = %20, %4
  ret void
}